target datalayout = "e-m:e-p270:32:32-p271:32:32-p272:64:64-i64:64-i128:128-f80:128-n8:16:32:64-S128"
target triple = "x86_64-unknown-linux-gnu"

@.str = private unnamed_addr constant [17 x i8] c"io_uring/statx.c\00", align 1

; Function Attrs: fn_ret_thunk_extern nounwind null_pointer_is_valid
define dso_local i32 @io_statx_prep(ptr nocapture noundef %0, ptr noundef %1) local_unnamed_addr #0 align 16 {
  %3 = getelementptr inbounds i8, ptr %1, i64 40
  %4 = load i16, ptr %3, align 8
  %5 = icmp eq i16 %4, 0
  br i1 %5, label %6, label %42

6:                                                ; preds = %2
  %7 = getelementptr inbounds i8, ptr %1, i64 44
  %8 = load i32, ptr %7, align 4
  %9 = icmp eq i32 %8, 0
  br i1 %9, label %10, label %42

10:                                               ; preds = %6
  %11 = getelementptr inbounds i8, ptr %0, i64 68
  %12 = load i32, ptr %11, align 4
  %13 = and i32 %12, 1
  %14 = icmp eq i32 %13, 0
  br i1 %14, label %15, label %42

15:                                               ; preds = %10
  %16 = getelementptr inbounds i8, ptr %1, i64 4
  %17 = load volatile i32, ptr %16, align 4
  %18 = getelementptr inbounds i8, ptr %0, i64 8
  store i32 %17, ptr %18, align 8
  %19 = getelementptr inbounds i8, ptr %1, i64 24
  %20 = load volatile i32, ptr %19, align 8
  %21 = getelementptr inbounds i8, ptr %0, i64 12
  store i32 %20, ptr %21, align 4
  %22 = getelementptr inbounds i8, ptr %1, i64 16
  %23 = load volatile i64, ptr %22, align 8
  %24 = inttoptr i64 %23 to ptr
  %25 = getelementptr inbounds i8, ptr %1, i64 8
  %26 = load volatile i64, ptr %25, align 8
  %27 = inttoptr i64 %26 to ptr
  %28 = getelementptr inbounds i8, ptr %0, i64 32
  store ptr %27, ptr %28, align 8
  %29 = getelementptr inbounds i8, ptr %1, i64 28
  %30 = load volatile i32, ptr %29, align 4
  %31 = getelementptr inbounds i8, ptr %0, i64 16
  store i32 %30, ptr %31, align 8
  %32 = tail call i32 @getname_statx_lookup_flags(i32 noundef %30) #2
  %33 = tail call ptr @getname_flags(ptr noundef %24, i32 noundef %32, ptr noundef null) #2
  %34 = getelementptr inbounds i8, ptr %0, i64 24
  store ptr %33, ptr %34, align 8
  %35 = icmp ugt ptr %33, inttoptr (i64 -4096 to ptr)
  br i1 %35, label %36, label %39

36:                                               ; preds = %15
  %37 = ptrtoint ptr %33 to i64
  %38 = trunc i64 %37 to i32
  store ptr null, ptr %34, align 8
  br label %42

39:                                               ; preds = %15
  %40 = load i32, ptr %11, align 4
  %41 = or i32 %40, 8208
  store i32 %41, ptr %11, align 4
  br label %42

42:                                               ; preds = %39, %36, %10, %6, %2
  %43 = phi i32 [ %38, %36 ], [ 0, %39 ], [ -22, %6 ], [ -22, %2 ], [ -9, %10 ]
  ret i32 %43
}

; Function Attrs: null_pointer_is_valid
declare dso_local ptr @getname_flags(ptr noundef, i32 noundef, ptr noundef) local_unnamed_addr #1

; Function Attrs: null_pointer_is_valid
declare dso_local i32 @getname_statx_lookup_flags(i32 noundef) local_unnamed_addr #1

; Function Attrs: fn_ret_thunk_extern nounwind null_pointer_is_valid
define dso_local noundef i32 @io_statx(ptr nocapture noundef %0, i32 noundef %1) local_unnamed_addr #0 align 16 {
  %3 = icmp sgt i32 %1, -1
  br i1 %3, label %5, label %4, !prof !5

4:                                                ; preds = %2
  tail call void asm sideeffect "687: nop\0A\09.pushsection .discard.instr_begin\0A\09.long 687b - .\0A\09.popsection\0A\09", "i,~{dirflag},~{fpsr},~{flags}"(i32 687) #2, !srcloc !6
  tail call void asm sideeffect "1:\09.byte 0x0f, 0x0b\0A.pushsection __bug_table,\22aw\22\0A2:\09.long 1b - .\09# bug_entry::bug_addr\0A\09.long ${0:c} - .\09# bug_entry::file\0A\09.word ${1:c}\09# bug_entry::line\0A\09.word ${2:c}\09# bug_entry::flags\0A\09.org 2b+${3:c}\0A.popsection\0A998:\0A\09.pushsection .discard.reachable\0A\09.long 998b\0A\09.popsection\0A\09", "i,i,i,i,~{dirflag},~{fpsr},~{flags}"(ptr nonnull @.str, i32 60, i32 2307, i64 12) #2, !srcloc !7
  tail call void asm sideeffect "688: nop\0A\09.pushsection .discard.instr_end\0A\09.long 688b - .\0A\09.popsection\0A\09", "i,~{dirflag},~{fpsr},~{flags}"(i32 688) #2, !srcloc !8
  br label %5

5:                                                ; preds = %4, %2
  %6 = getelementptr inbounds i8, ptr %0, i64 8
  %7 = load i32, ptr %6, align 8
  %8 = getelementptr inbounds i8, ptr %0, i64 24
  %9 = load ptr, ptr %8, align 8
  %10 = getelementptr inbounds i8, ptr %0, i64 16
  %11 = load i32, ptr %10, align 8
  %12 = getelementptr inbounds i8, ptr %0, i64 12
  %13 = load i32, ptr %12, align 4
  %14 = getelementptr inbounds i8, ptr %0, i64 32
  %15 = load ptr, ptr %14, align 8
  %16 = tail call i32 @do_statx(i32 noundef %7, ptr noundef %9, i32 noundef %11, i32 noundef %13, ptr noundef %15) #2
  %17 = getelementptr inbounds i8, ptr %0, i64 80
  store i32 %16, ptr %17, align 8
  %18 = getelementptr inbounds i8, ptr %0, i64 84
  store i32 0, ptr %18, align 4
  ret i32 0
}

; Function Attrs: null_pointer_is_valid
declare dso_local i32 @do_statx(i32 noundef, ptr noundef, i32 noundef, i32 noundef, ptr noundef) local_unnamed_addr #1

; Function Attrs: fn_ret_thunk_extern nounwind null_pointer_is_valid
define dso_local void @io_statx_cleanup(ptr nocapture noundef readonly %0) local_unnamed_addr #0 align 16 {
  %2 = getelementptr inbounds i8, ptr %0, i64 24
  %3 = load ptr, ptr %2, align 8
  %4 = icmp eq ptr %3, null
  br i1 %4, label %6, label %5

5:                                                ; preds = %1
  tail call void @putname(ptr noundef nonnull %3) #2
  br label %6

6:                                                ; preds = %5, %1
  ret void
}

; Function Attrs: null_pointer_is_valid
declare dso_local void @putname(ptr noundef) local_unnamed_addr #1


!llvm.module.flags = !{!0, !1, !2, !3, !4}

!0 = !{i32 1, !"wchar_size", i32 2}
!1 = !{i32 8, !"cf-protection-branch", i32 1}
!2 = !{i32 4, !"function_return_thunk_extern", i32 1}
!3 = !{i32 4, !"indirect_branch_cs_prefix", i32 1}
!4 = !{i32 4, !"SkipRaxSetup", i32 1}
!5 = !{!"branch_weights", i32 2000, i32 1}
!6 = !{i64 2156917027, i64 2156916836, i64 2156916888, i64 2156916934, i64 2156916962}
!7 = !{i64 2156917101, i64 2156917130, i64 2156917176, i64 2156917234, i64 2156917288, i64 2156917342, i64 2156917397, i64 2156917428, i64 2156917736, i64 2156917742, i64 2156917789, i64 2156917812, i64 2156917838}
!8 = !{i64 2156922347, i64 2156922158, i64 2156922208, i64 2156922254, i64 2156922282}
